; ModuleID = '56/1573.c'
source_filename = "56/1573.c"
target datalayout = "e-m:e-p270:32:32-p271:32:32-p272:64:64-i64:64-f80:128-n8:16:32:64-S128"
target triple = "x86_64-pc-linux-gnu"

@.str = private unnamed_addr constant [3 x i8] c"%d\00", align 1
@.str.1 = private unnamed_addr constant [11 x i8] c"%d%d%d%d%d\00", align 1
@.str.2 = private unnamed_addr constant [9 x i8] c"%d%d%d%d\00", align 1
@.str.3 = private unnamed_addr constant [7 x i8] c"%d%d%d\00", align 1
@.str.4 = private unnamed_addr constant [5 x i8] c"%d%d\00", align 1

; Function Attrs: noinline nounwind uwtable
define dso_local void @main() #0 {
  %1 = alloca i32, align 4
  %2 = alloca i32, align 4
  %3 = alloca i32, align 4
  %4 = alloca i32, align 4
  %5 = alloca i32, align 4
  %6 = alloca i32, align 4
  %7 = call i32 (i8*, ...) @__isoc99_scanf(i8* getelementptr inbounds ([3 x i8], [3 x i8]* @.str, i64 0, i64 0), i32* %1)
  %8 = load i32, i32* %1, align 4
  %9 = icmp sgt i32 %8, 9999
  br i1 %9, label %10, label %56

10:                                               ; preds = %0
  %11 = load i32, i32* %1, align 4
  %12 = sdiv i32 %11, 10000
  store i32 %12, i32* %2, align 4
  %13 = load i32, i32* %1, align 4
  %14 = load i32, i32* %2, align 4
  %15 = mul nsw i32 %14, 10000
  %16 = sub nsw i32 %13, %15
  %17 = sdiv i32 %16, 1000
  store i32 %17, i32* %3, align 4
  %18 = load i32, i32* %1, align 4
  %19 = load i32, i32* %2, align 4
  %20 = mul nsw i32 %19, 10000
  %21 = sub nsw i32 %18, %20
  %22 = load i32, i32* %3, align 4
  %23 = mul nsw i32 %22, 1000
  %24 = sub nsw i32 %21, %23
  %25 = sdiv i32 %24, 100
  store i32 %25, i32* %4, align 4
  %26 = load i32, i32* %1, align 4
  %27 = load i32, i32* %2, align 4
  %28 = mul nsw i32 %27, 10000
  %29 = sub nsw i32 %26, %28
  %30 = load i32, i32* %3, align 4
  %31 = mul nsw i32 %30, 1000
  %32 = sub nsw i32 %29, %31
  %33 = load i32, i32* %4, align 4
  %34 = mul nsw i32 %33, 100
  %35 = sub nsw i32 %32, %34
  %36 = sdiv i32 %35, 10
  store i32 %36, i32* %5, align 4
  %37 = load i32, i32* %1, align 4
  %38 = load i32, i32* %2, align 4
  %39 = mul nsw i32 %38, 10000
  %40 = sub nsw i32 %37, %39
  %41 = load i32, i32* %3, align 4
  %42 = mul nsw i32 %41, 1000
  %43 = sub nsw i32 %40, %42
  %44 = load i32, i32* %4, align 4
  %45 = mul nsw i32 %44, 100
  %46 = sub nsw i32 %43, %45
  %47 = load i32, i32* %5, align 4
  %48 = mul nsw i32 %47, 10
  %49 = sub nsw i32 %46, %48
  store i32 %49, i32* %6, align 4
  %50 = load i32, i32* %6, align 4
  %51 = load i32, i32* %5, align 4
  %52 = load i32, i32* %4, align 4
  %53 = load i32, i32* %3, align 4
  %54 = load i32, i32* %2, align 4
  %55 = call i32 (i8*, ...) @printf(i8* getelementptr inbounds ([11 x i8], [11 x i8]* @.str.1, i64 0, i64 0), i32 %50, i32 %51, i32 %52, i32 %53, i32 %54)
  br label %131

56:                                               ; preds = %0
  %57 = load i32, i32* %1, align 4
  %58 = icmp sgt i32 %57, 999
  br i1 %58, label %59, label %90

59:                                               ; preds = %56
  %60 = load i32, i32* %1, align 4
  %61 = sdiv i32 %60, 1000
  store i32 %61, i32* %2, align 4
  %62 = load i32, i32* %1, align 4
  %63 = load i32, i32* %2, align 4
  %64 = mul nsw i32 %63, 1000
  %65 = sub nsw i32 %62, %64
  %66 = sdiv i32 %65, 100
  store i32 %66, i32* %3, align 4
  %67 = load i32, i32* %1, align 4
  %68 = load i32, i32* %2, align 4
  %69 = mul nsw i32 %68, 1000
  %70 = sub nsw i32 %67, %69
  %71 = load i32, i32* %3, align 4
  %72 = mul nsw i32 %71, 100
  %73 = sub nsw i32 %70, %72
  %74 = sdiv i32 %73, 10
  store i32 %74, i32* %4, align 4
  %75 = load i32, i32* %1, align 4
  %76 = load i32, i32* %2, align 4
  %77 = mul nsw i32 %76, 1000
  %78 = sub nsw i32 %75, %77
  %79 = load i32, i32* %3, align 4
  %80 = mul nsw i32 %79, 100
  %81 = sub nsw i32 %78, %80
  %82 = load i32, i32* %4, align 4
  %83 = mul nsw i32 %82, 10
  %84 = sub nsw i32 %81, %83
  store i32 %84, i32* %5, align 4
  %85 = load i32, i32* %5, align 4
  %86 = load i32, i32* %4, align 4
  %87 = load i32, i32* %3, align 4
  %88 = load i32, i32* %2, align 4
  %89 = call i32 (i8*, ...) @printf(i8* getelementptr inbounds ([9 x i8], [9 x i8]* @.str.2, i64 0, i64 0), i32 %85, i32 %86, i32 %87, i32 %88)
  br label %130

90:                                               ; preds = %56
  %91 = load i32, i32* %1, align 4
  %92 = icmp sgt i32 %91, 99
  br i1 %92, label %93, label %112

93:                                               ; preds = %90
  %94 = load i32, i32* %1, align 4
  %95 = sdiv i32 %94, 100
  store i32 %95, i32* %2, align 4
  %96 = load i32, i32* %1, align 4
  %97 = load i32, i32* %2, align 4
  %98 = mul nsw i32 %97, 100
  %99 = sub nsw i32 %96, %98
  %100 = sdiv i32 %99, 10
  store i32 %100, i32* %3, align 4
  %101 = load i32, i32* %1, align 4
  %102 = load i32, i32* %2, align 4
  %103 = mul nsw i32 %102, 100
  %104 = sub nsw i32 %101, %103
  %105 = load i32, i32* %3, align 4
  %106 = mul nsw i32 %105, 10
  %107 = sub nsw i32 %104, %106
  store i32 %107, i32* %4, align 4
  %108 = load i32, i32* %4, align 4
  %109 = load i32, i32* %3, align 4
  %110 = load i32, i32* %2, align 4
  %111 = call i32 (i8*, ...) @printf(i8* getelementptr inbounds ([7 x i8], [7 x i8]* @.str.3, i64 0, i64 0), i32 %108, i32 %109, i32 %110)
  br label %129

112:                                              ; preds = %90
  %113 = load i32, i32* %1, align 4
  %114 = icmp sgt i32 %113, 9
  br i1 %114, label %115, label %125

115:                                              ; preds = %112
  %116 = load i32, i32* %1, align 4
  %117 = sdiv i32 %116, 10
  store i32 %117, i32* %2, align 4
  %118 = load i32, i32* %1, align 4
  %119 = load i32, i32* %2, align 4
  %120 = mul nsw i32 %119, 100
  %121 = sub nsw i32 %118, %120
  store i32 %121, i32* %3, align 4
  %122 = load i32, i32* %3, align 4
  %123 = load i32, i32* %2, align 4
  %124 = call i32 (i8*, ...) @printf(i8* getelementptr inbounds ([5 x i8], [5 x i8]* @.str.4, i64 0, i64 0), i32 %122, i32 %123)
  br label %128

125:                                              ; preds = %112
  %126 = load i32, i32* %1, align 4
  %127 = call i32 (i8*, ...) @printf(i8* getelementptr inbounds ([3 x i8], [3 x i8]* @.str, i64 0, i64 0), i32 %126)
  br label %128

128:                                              ; preds = %125, %115
  br label %129

129:                                              ; preds = %128, %93
  br label %130

130:                                              ; preds = %129, %59
  br label %131

131:                                              ; preds = %130, %10
  ret void
}

declare dso_local i32 @__isoc99_scanf(i8*, ...) #1

declare dso_local i32 @printf(i8*, ...) #1


!llvm.module.flags = !{!0}
!llvm.ident = !{!1}

!0 = !{i32 1, !"wchar_size", i32 4}
!1 = !{!"clang version 10.0.0-4ubuntu1 "}
